target datalayout = "e-m:e-p270:32:32-p271:32:32-p272:64:64-i64:64-i128:128-f80:128-n8:16:32:64-S128"
target triple = "x86_64-pc-linux-gnu"

%struct.typedefs = type { ptr, ptr, ptr, i32, ptr }

@types = external global ptr, align 8
@.str.6 = private unnamed_addr constant [33 x i8] c"unrecognized data type name \22%s\22\00", align 1

; Function Attrs: nounwind uwtable
define dso_local ptr @get_typedef(ptr noundef %0, i1 noundef zeroext %1) #0 {
  %3 = alloca ptr, align 8
  %4 = alloca ptr, align 8
  %5 = alloca i8, align 1
  %6 = alloca ptr, align 8
  %7 = alloca i32, align 4
  store ptr %0, ptr %4, align 8
  %8 = zext i1 %1 to i8
  store i8 %8, ptr %5, align 1
  call void @llvm.lifetime.start.p0(i64 8, ptr %6) #7
  %9 = load ptr, ptr @types, align 8
  store ptr %9, ptr %6, align 8
  br label %10

10:                                               ; preds = %23, %2
  %11 = load ptr, ptr %6, align 8
  %12 = icmp ne ptr %11, null
  br i1 %12, label %13, label %27

13:                                               ; preds = %10
  %14 = load ptr, ptr %6, align 8
  %15 = getelementptr inbounds nuw %struct.typedefs, ptr %14, i32 0, i32 0
  %16 = load ptr, ptr %15, align 8
  %17 = load ptr, ptr %4, align 8
  %18 = call i32 @strcmp(ptr noundef %16, ptr noundef %17) #8
  %19 = icmp eq i32 %18, 0
  br i1 %19, label %20, label %22

20:                                               ; preds = %13
  %21 = load ptr, ptr %6, align 8
  store ptr %21, ptr %3, align 8
  store i32 1, ptr %7, align 4
  br label %33

22:                                               ; preds = %13
  br label %23

23:                                               ; preds = %22
  %24 = load ptr, ptr %6, align 8
  %25 = getelementptr inbounds nuw %struct.typedefs, ptr %24, i32 0, i32 4
  %26 = load ptr, ptr %25, align 8
  store ptr %26, ptr %6, align 8
  br label %10, !llvm.loop !19

27:                                               ; preds = %10
  %28 = load i8, ptr %5, align 1, !range !16, !noundef !17
  %29 = trunc i8 %28 to i1
  br i1 %29, label %32, label %30

30:                                               ; preds = %27
  %31 = load ptr, ptr %4, align 8
  call void (i32, ptr, ...) @mmfatal(i32 noundef 3, ptr noundef @.str.6, ptr noundef %31) #9
  unreachable

32:                                               ; preds = %27
  store ptr null, ptr %3, align 8
  store i32 1, ptr %7, align 4
  br label %33

33:                                               ; preds = %32, %20
  call void @llvm.lifetime.end.p0(i64 8, ptr %6) #7
  %34 = load ptr, ptr %3, align 8
  ret ptr %34
}