; Function Attrs: nounwind uwtable
define dso_local noundef ptr @get_typedef(ptr noundef %0, i1 noundef zeroext %1) local_unnamed_addr #0 {
  %.010 = load ptr, ptr @types, align 8
  %.not11 = icmp eq ptr %.010, null
  br i1 %.not11, label %._crit_edge, label %.lr.ph

.lr.ph:                                           ; preds = %2, %6
  %.012 = phi ptr [ %.0, %6 ], [ %.010, %2 ]
  %3 = load ptr, ptr %.012, align 8
  %4 = tail call i32 @strcmp(ptr noundef nonnull dereferenceable(1) %3, ptr noundef nonnull dereferenceable(1) %0) #7
  %5 = icmp eq i32 %4, 0
  br i1 %5, label %.loopexit, label %6

6:                                                ; preds = %.lr.ph
  %7 = getelementptr inbounds nuw i8, ptr %.012, i64 32
  %.0 = load ptr, ptr %7, align 8
  %.not = icmp eq ptr %.0, null
  br i1 %.not, label %._crit_edge, label %.lr.ph, !llvm.loop !17

._crit_edge:                                      ; preds = %6, %2
  br i1 %1, label %.loopexit, label %8

8:                                                ; preds = %._crit_edge
  tail call void (i32, ptr, ...) @mmfatal(i32 noundef 3, ptr noundef nonnull @.str.6, ptr noundef %0) #8
  unreachable

.loopexit:                                        ; preds = %.lr.ph, %._crit_edge
  %.09 = phi ptr [ null, %._crit_edge ], [ %.012, %.lr.ph ]
  ret ptr %.09
}